target datalayout = "e-m:e-p270:32:32-p271:32:32-p272:64:64-i64:64-i128:128-f80:128-n8:16:32:64-S128"
target triple = "x86_64-pc-linux-gnu"

%struct.crypto_onetimeauth_poly1305_state = type { [256 x i8] }

; Function Attrs: alwaysinline nounwind
define internal ptr @memcpy.inline(ptr noalias nonnull %0, ptr noalias nonnull %1, i64 %2) #5 {
  %4 = alloca ptr, align 8
  %5 = alloca ptr, align 8
  %6 = alloca i64, align 8
  store ptr %0, ptr %4, align 8
  store ptr %1, ptr %5, align 8
  store i64 %2, ptr %6, align 8
  %7 = load ptr, ptr %4, align 8
  %8 = load ptr, ptr %5, align 8
  %9 = load i64, ptr %6, align 8
  %10 = load ptr, ptr %4, align 8
  %11 = call i64 @llvm.objectsize.i64.p0(ptr %10, i1 false, i1 true, i1 true)
  %12 = call ptr @__memcpy_chk(ptr noundef %7, ptr noundef %8, i64 noundef %9, i64 noundef %11) #8
  ret ptr %12
}

; Function Attrs: alwaysinline nounwind
define internal ptr @memset.inline(ptr nonnull %0, i32 %1, i64 %2) #5 {
  %4 = alloca ptr, align 8
  %5 = alloca i32, align 4
  %6 = alloca i64, align 8
  store ptr %0, ptr %4, align 8
  store i32 %1, ptr %5, align 4
  store i64 %2, ptr %6, align 8
  %7 = load ptr, ptr %4, align 8
  %8 = load i32, ptr %5, align 4
  %9 = load i64, ptr %6, align 8
  %10 = load ptr, ptr %4, align 8
  %11 = call i64 @llvm.objectsize.i64.p0(ptr %10, i1 false, i1 true, i1 true)
  %12 = call ptr @__memset_chk(ptr noundef %7, i32 noundef %8, i64 noundef %9, i64 noundef %11) #8
  ret ptr %12
}

; Function Attrs: inlinehint nounwind ssp uwtable
define internal void @store64_le(ptr noundef %0, i64 noundef %1) #3 {
  %3 = alloca ptr, align 8
  %4 = alloca i64, align 8
  store ptr %0, ptr %3, align 8
  store i64 %1, ptr %4, align 8
  %5 = load ptr, ptr %3, align 8
  %6 = call ptr @memcpy.inline(ptr noundef %5, ptr noundef %4, i64 noundef 8) #8
  ret void
}

; Function Attrs: nounwind ssp uwtable
define dso_local i32 @crypto_aead_chacha20poly1305_decrypt_detached(ptr noundef %0, ptr noundef %1, ptr noundef nonnull %2, i64 noundef %3, ptr noundef nonnull %4, ptr noundef %5, i64 noundef %6, ptr noundef nonnull %7, ptr noundef nonnull %8) #0 {
  %10 = alloca i32, align 4
  %11 = alloca ptr, align 8
  %12 = alloca ptr, align 8
  %13 = alloca ptr, align 8
  %14 = alloca i64, align 8
  %15 = alloca ptr, align 8
  %16 = alloca ptr, align 8
  %17 = alloca i64, align 8
  %18 = alloca ptr, align 8
  %19 = alloca ptr, align 8
  %20 = alloca %struct.crypto_onetimeauth_poly1305_state, align 16
  %21 = alloca [64 x i8], align 16
  %22 = alloca [8 x i8], align 1
  %23 = alloca [16 x i8], align 16
  %24 = alloca i64, align 8
  %25 = alloca i32, align 4
  %26 = alloca i32, align 4
  store ptr %0, ptr %11, align 8
  store ptr %1, ptr %12, align 8
  store ptr %2, ptr %13, align 8
  store i64 %3, ptr %14, align 8
  store ptr %4, ptr %15, align 8
  store ptr %5, ptr %16, align 8
  store i64 %6, ptr %17, align 8
  store ptr %7, ptr %18, align 8
  store ptr %8, ptr %19, align 8
  call void @llvm.lifetime.start.p0(i64 256, ptr %20) #8
  call void @llvm.lifetime.start.p0(i64 64, ptr %21) #8
  call void @llvm.lifetime.start.p0(i64 8, ptr %22) #8
  call void @llvm.lifetime.start.p0(i64 16, ptr %23) #8
  call void @llvm.lifetime.start.p0(i64 8, ptr %24) #8
  call void @llvm.lifetime.start.p0(i64 4, ptr %25) #8
  %27 = getelementptr inbounds [64 x i8], ptr %21, i64 0, i64 0
  %28 = load ptr, ptr %18, align 8
  %29 = load ptr, ptr %19, align 8
  %30 = call i32 @crypto_stream_chacha20(ptr noundef %27, i64 noundef 64, ptr noundef %28, ptr noundef %29)
  %31 = getelementptr inbounds [64 x i8], ptr %21, i64 0, i64 0
  %32 = call i32 @crypto_onetimeauth_poly1305_init(ptr noundef %20, ptr noundef %31)
  %33 = getelementptr inbounds [64 x i8], ptr %21, i64 0, i64 0
  call void @sodium_memzero(ptr noundef %33, i64 noundef 64)
  %34 = load ptr, ptr %16, align 8
  %35 = load i64, ptr %17, align 8
  %36 = call i32 @crypto_onetimeauth_poly1305_update(ptr noundef %20, ptr noundef %34, i64 noundef %35)
  %37 = getelementptr inbounds [8 x i8], ptr %22, i64 0, i64 0
  %38 = load i64, ptr %17, align 8
  call void @store64_le(ptr noundef %37, i64 noundef %38)
  %39 = getelementptr inbounds [8 x i8], ptr %22, i64 0, i64 0
  %40 = call i32 @crypto_onetimeauth_poly1305_update(ptr noundef %20, ptr noundef %39, i64 noundef 8)
  %41 = load i64, ptr %14, align 8
  store i64 %41, ptr %24, align 8
  %42 = load ptr, ptr %13, align 8
  %43 = load i64, ptr %24, align 8
  %44 = call i32 @crypto_onetimeauth_poly1305_update(ptr noundef %20, ptr noundef %42, i64 noundef %43)
  %45 = getelementptr inbounds [8 x i8], ptr %22, i64 0, i64 0
  %46 = load i64, ptr %24, align 8
  call void @store64_le(ptr noundef %45, i64 noundef %46)
  %47 = getelementptr inbounds [8 x i8], ptr %22, i64 0, i64 0
  %48 = call i32 @crypto_onetimeauth_poly1305_update(ptr noundef %20, ptr noundef %47, i64 noundef 8)
  %49 = getelementptr inbounds [16 x i8], ptr %23, i64 0, i64 0
  %50 = call i32 @crypto_onetimeauth_poly1305_final(ptr noundef %20, ptr noundef %49)
  call void @sodium_memzero(ptr noundef %20, i64 noundef 256)
  %51 = getelementptr inbounds [16 x i8], ptr %23, i64 0, i64 0
  %52 = load ptr, ptr %15, align 8
  %53 = call i32 @crypto_verify_16(ptr noundef %51, ptr noundef %52)
  store i32 %53, ptr %25, align 4
  %54 = getelementptr inbounds [16 x i8], ptr %23, i64 0, i64 0
  call void @sodium_memzero(ptr noundef %54, i64 noundef 16)
  %55 = load ptr, ptr %11, align 8
  %56 = icmp eq ptr %55, null
  br i1 %56, label %57, label %59

57:                                               ; preds = %9
  %58 = load i32, ptr %25, align 4
  store i32 %58, ptr %10, align 4
  store i32 1, ptr %26, align 4
  br label %73

59:                                               ; preds = %9
  %60 = load i32, ptr %25, align 4
  %61 = icmp ne i32 %60, 0
  br i1 %61, label %62, label %66

62:                                               ; preds = %59
  %63 = load ptr, ptr %11, align 8
  %64 = load i64, ptr %24, align 8
  %65 = call ptr @memset.inline(ptr noundef %63, i32 noundef 0, i64 noundef %64) #8
  store i32 -1, ptr %10, align 4
  store i32 1, ptr %26, align 4
  br label %73

66:                                               ; preds = %59
  %67 = load ptr, ptr %11, align 8
  %68 = load ptr, ptr %13, align 8
  %69 = load i64, ptr %24, align 8
  %70 = load ptr, ptr %18, align 8
  %71 = load ptr, ptr %19, align 8
  %72 = call i32 @crypto_stream_chacha20_xor_ic(ptr noundef %67, ptr noundef %68, i64 noundef %69, ptr noundef %70, i64 noundef 1, ptr noundef %71)
  store i32 0, ptr %10, align 4
  store i32 1, ptr %26, align 4
  br label %73

73:                                               ; preds = %66, %62, %57
  call void @llvm.lifetime.end.p0(i64 4, ptr %25) #8
  call void @llvm.lifetime.end.p0(i64 8, ptr %24) #8
  call void @llvm.lifetime.end.p0(i64 16, ptr %23) #8
  call void @llvm.lifetime.end.p0(i64 8, ptr %22) #8
  call void @llvm.lifetime.end.p0(i64 64, ptr %21) #8
  call void @llvm.lifetime.end.p0(i64 256, ptr %20) #8
  %74 = load i32, ptr %10, align 4
  ret i32 %74
}