; Function Attrs: nounwind ssp uwtable
define dso_local i32 @crypto_aead_chacha20poly1305_decrypt_detached(ptr noundef %0, ptr readnone captures(none) %1, ptr noundef nonnull %2, i64 noundef %3, ptr noundef nonnull %4, ptr noundef %5, i64 noundef %6, ptr noundef nonnull %7, ptr noundef nonnull %8) local_unnamed_addr #0 {
  %10 = alloca %struct.crypto_onetimeauth_poly1305_state, align 16
  %11 = alloca [64 x i8], align 16
  %12 = alloca [8 x i8], align 8
  %13 = alloca [16 x i8], align 16
  call void @llvm.lifetime.start.p0(i64 256, ptr nonnull %10) #6
  call void @llvm.lifetime.start.p0(i64 64, ptr nonnull %11) #6
  call void @llvm.lifetime.start.p0(i64 8, ptr nonnull %12) #6
  call void @llvm.lifetime.start.p0(i64 16, ptr nonnull %13) #6
  %14 = call i32 @crypto_stream_chacha20(ptr noundef nonnull %11, i64 noundef 64, ptr noundef nonnull %7, ptr noundef nonnull %8) #6
  %15 = call i32 @crypto_onetimeauth_poly1305_init(ptr noundef nonnull %10, ptr noundef nonnull %11) #6
  call void @sodium_memzero(ptr noundef nonnull %11, i64 noundef 64) #6
  %16 = call i32 @crypto_onetimeauth_poly1305_update(ptr noundef nonnull %10, ptr noundef %5, i64 noundef %6) #6
  store i64 %6, ptr %12, align 8
  %17 = call i32 @crypto_onetimeauth_poly1305_update(ptr noundef nonnull %10, ptr noundef nonnull %12, i64 noundef 8) #6
  %18 = call i32 @crypto_onetimeauth_poly1305_update(ptr noundef nonnull %10, ptr noundef nonnull %2, i64 noundef %3) #6
  store i64 %3, ptr %12, align 8
  %19 = call i32 @crypto_onetimeauth_poly1305_update(ptr noundef nonnull %10, ptr noundef nonnull %12, i64 noundef 8) #6
  %20 = call i32 @crypto_onetimeauth_poly1305_final(ptr noundef nonnull %10, ptr noundef nonnull %13) #6
  call void @sodium_memzero(ptr noundef nonnull %10, i64 noundef 256) #6
  %21 = call i32 @crypto_verify_16(ptr noundef nonnull %13, ptr noundef nonnull %4) #6
  call void @sodium_memzero(ptr noundef nonnull %13, i64 noundef 16) #6
  %22 = icmp eq ptr %0, null
  br i1 %22, label %27, label %23

23:                                               ; preds = %9
  %.not = icmp eq i32 %21, 0
  br i1 %.not, label %25, label %24

24:                                               ; preds = %23
  call void @llvm.memset.p0.i64(ptr noundef nonnull align 1 %0, i8 noundef 0, i64 noundef %3, i1 noundef false) #6
  br label %27

25:                                               ; preds = %23
  %26 = call i32 @crypto_stream_chacha20_xor_ic(ptr noundef nonnull %0, ptr noundef nonnull %2, i64 noundef %3, ptr noundef nonnull %7, i64 noundef 1, ptr noundef nonnull %8) #6
  br label %27

27:                                               ; preds = %9, %25, %24
  %.0 = phi i32 [ -1, %24 ], [ 0, %25 ], [ %21, %9 ]
  call void @llvm.lifetime.end.p0(i64 16, ptr nonnull %13) #6
  call void @llvm.lifetime.end.p0(i64 8, ptr nonnull %12) #6
  call void @llvm.lifetime.end.p0(i64 64, ptr nonnull %11) #6
  call void @llvm.lifetime.end.p0(i64 256, ptr nonnull %10) #6
  ret i32 %.0
}